target datalayout = "e-m:e-p270:32:32-p271:32:32-p272:64:64-i64:64-i128:128-f80:128-n8:16:32:64-S128"
target triple = "x86_64-pc-linux-gnu"

; Function Attrs: nounwind uwtable
define i32 @stbtt__ray_intersect_bezier(ptr noundef %0, ptr noundef %1, ptr noundef %2, ptr noundef %3, ptr noundef %4, ptr noundef %5) #0 {
  %7 = alloca i32, align 4
  %8 = alloca ptr, align 8
  %9 = alloca ptr, align 8
  %10 = alloca ptr, align 8
  %11 = alloca ptr, align 8
  %12 = alloca ptr, align 8
  %13 = alloca ptr, align 8
  %14 = alloca float, align 4
  %15 = alloca float, align 4
  %16 = alloca float, align 4
  %17 = alloca float, align 4
  %18 = alloca float, align 4
  %19 = alloca float, align 4
  %20 = alloca float, align 4
  %21 = alloca float, align 4
  %22 = alloca float, align 4
  %23 = alloca i32, align 4
  %24 = alloca float, align 4
  %25 = alloca float, align 4
  %26 = alloca float, align 4
  %27 = alloca i32, align 4
  %28 = alloca float, align 4
  %29 = alloca float, align 4
  %30 = alloca float, align 4
  %31 = alloca float, align 4
  %32 = alloca float, align 4
  %33 = alloca float, align 4
  %34 = alloca float, align 4
  %35 = alloca float, align 4
  %36 = alloca float, align 4
  %37 = alloca float, align 4
  store ptr %0, ptr %8, align 8, !tbaa !133
  store ptr %1, ptr %9, align 8, !tbaa !133
  store ptr %2, ptr %10, align 8, !tbaa !133
  store ptr %3, ptr %11, align 8, !tbaa !133
  store ptr %4, ptr %12, align 8, !tbaa !133
  store ptr %5, ptr %13, align 8, !tbaa !133
  call void @llvm.lifetime.start.p0(i64 4, ptr %14) #8
  %38 = load ptr, ptr %10, align 8, !tbaa !133
  %39 = getelementptr inbounds float, ptr %38, i64 1
  %40 = load float, ptr %39, align 4, !tbaa !67
  %41 = load ptr, ptr %9, align 8, !tbaa !133
  %42 = getelementptr inbounds float, ptr %41, i64 0
  %43 = load float, ptr %42, align 4, !tbaa !67
  %44 = load ptr, ptr %10, align 8, !tbaa !133
  %45 = getelementptr inbounds float, ptr %44, i64 0
  %46 = load float, ptr %45, align 4, !tbaa !67
  %47 = load ptr, ptr %9, align 8, !tbaa !133
  %48 = getelementptr inbounds float, ptr %47, i64 1
  %49 = load float, ptr %48, align 4, !tbaa !67
  %50 = fmul float %46, %49
  %51 = fneg float %50
  %52 = call float @llvm.fmuladd.f32(float %40, float %43, float %51)
  store float %52, ptr %14, align 4, !tbaa !67
  call void @llvm.lifetime.start.p0(i64 4, ptr %15) #8
  %53 = load ptr, ptr %11, align 8, !tbaa !133
  %54 = getelementptr inbounds float, ptr %53, i64 1
  %55 = load float, ptr %54, align 4, !tbaa !67
  %56 = load ptr, ptr %9, align 8, !tbaa !133
  %57 = getelementptr inbounds float, ptr %56, i64 0
  %58 = load float, ptr %57, align 4, !tbaa !67
  %59 = load ptr, ptr %11, align 8, !tbaa !133
  %60 = getelementptr inbounds float, ptr %59, i64 0
  %61 = load float, ptr %60, align 4, !tbaa !67
  %62 = load ptr, ptr %9, align 8, !tbaa !133
  %63 = getelementptr inbounds float, ptr %62, i64 1
  %64 = load float, ptr %63, align 4, !tbaa !67
  %65 = fmul float %61, %64
  %66 = fneg float %65
  %67 = call float @llvm.fmuladd.f32(float %55, float %58, float %66)
  store float %67, ptr %15, align 4, !tbaa !67
  call void @llvm.lifetime.start.p0(i64 4, ptr %16) #8
  %68 = load ptr, ptr %12, align 8, !tbaa !133
  %69 = getelementptr inbounds float, ptr %68, i64 1
  %70 = load float, ptr %69, align 4, !tbaa !67
  %71 = load ptr, ptr %9, align 8, !tbaa !133
  %72 = getelementptr inbounds float, ptr %71, i64 0
  %73 = load float, ptr %72, align 4, !tbaa !67
  %74 = load ptr, ptr %12, align 8, !tbaa !133
  %75 = getelementptr inbounds float, ptr %74, i64 0
  %76 = load float, ptr %75, align 4, !tbaa !67
  %77 = load ptr, ptr %9, align 8, !tbaa !133
  %78 = getelementptr inbounds float, ptr %77, i64 1
  %79 = load float, ptr %78, align 4, !tbaa !67
  %80 = fmul float %76, %79
  %81 = fneg float %80
  %82 = call float @llvm.fmuladd.f32(float %70, float %73, float %81)
  store float %82, ptr %16, align 4, !tbaa !67
  call void @llvm.lifetime.start.p0(i64 4, ptr %17) #8
  %83 = load ptr, ptr %8, align 8, !tbaa !133
  %84 = getelementptr inbounds float, ptr %83, i64 1
  %85 = load float, ptr %84, align 4, !tbaa !67
  %86 = load ptr, ptr %9, align 8, !tbaa !133
  %87 = getelementptr inbounds float, ptr %86, i64 0
  %88 = load float, ptr %87, align 4, !tbaa !67
  %89 = load ptr, ptr %8, align 8, !tbaa !133
  %90 = getelementptr inbounds float, ptr %89, i64 0
  %91 = load float, ptr %90, align 4, !tbaa !67
  %92 = load ptr, ptr %9, align 8, !tbaa !133
  %93 = getelementptr inbounds float, ptr %92, i64 1
  %94 = load float, ptr %93, align 4, !tbaa !67
  %95 = fmul float %91, %94
  %96 = fneg float %95
  %97 = call float @llvm.fmuladd.f32(float %85, float %88, float %96)
  store float %97, ptr %17, align 4, !tbaa !67
  call void @llvm.lifetime.start.p0(i64 4, ptr %18) #8
  %98 = load float, ptr %14, align 4, !tbaa !67
  %99 = load float, ptr %15, align 4, !tbaa !67
  %100 = call float @llvm.fmuladd.f32(float -2.000000e+00, float %99, float %98)
  %101 = load float, ptr %16, align 4, !tbaa !67
  %102 = fadd float %100, %101
  store float %102, ptr %18, align 4, !tbaa !67
  call void @llvm.lifetime.start.p0(i64 4, ptr %19) #8
  %103 = load float, ptr %15, align 4, !tbaa !67
  %104 = load float, ptr %14, align 4, !tbaa !67
  %105 = fsub float %103, %104
  store float %105, ptr %19, align 4, !tbaa !67
  call void @llvm.lifetime.start.p0(i64 4, ptr %20) #8
  %106 = load float, ptr %14, align 4, !tbaa !67
  %107 = load float, ptr %17, align 4, !tbaa !67
  %108 = fsub float %106, %107
  store float %108, ptr %20, align 4, !tbaa !67
  call void @llvm.lifetime.start.p0(i64 4, ptr %21) #8
  store float 0.000000e+00, ptr %21, align 4, !tbaa !67
  call void @llvm.lifetime.start.p0(i64 4, ptr %22) #8
  store float 0.000000e+00, ptr %22, align 4, !tbaa !67
  call void @llvm.lifetime.start.p0(i64 4, ptr %23) #8
  store i32 0, ptr %23, align 4, !tbaa !14
  %109 = load float, ptr %18, align 4, !tbaa !67
  %110 = fpext float %109 to double
  %111 = fcmp une double %110, 0.000000e+00
  br i1 %111, label %112, label %170

112:                                              ; preds = %6
  call void @llvm.lifetime.start.p0(i64 4, ptr %24) #8
  %113 = load float, ptr %19, align 4, !tbaa !67
  %114 = load float, ptr %19, align 4, !tbaa !67
  %115 = load float, ptr %18, align 4, !tbaa !67
  %116 = load float, ptr %20, align 4, !tbaa !67
  %117 = fmul float %115, %116
  %118 = fneg float %117
  %119 = call float @llvm.fmuladd.f32(float %113, float %114, float %118)
  store float %119, ptr %24, align 4, !tbaa !67
  %120 = load float, ptr %24, align 4, !tbaa !67
  %121 = fpext float %120 to double
  %122 = fcmp ogt double %121, 0.000000e+00
  br i1 %122, label %123, label %169

123:                                              ; preds = %112
  call void @llvm.lifetime.start.p0(i64 4, ptr %25) #8
  %124 = load float, ptr %18, align 4, !tbaa !67
  %125 = fdiv float -1.000000e+00, %124
  store float %125, ptr %25, align 4, !tbaa !67
  call void @llvm.lifetime.start.p0(i64 4, ptr %26) #8
  %126 = load float, ptr %24, align 4, !tbaa !67
  %127 = fpext float %126 to double
  %128 = call double @sqrt(double noundef %127) #8, !tbaa !14
  %129 = fptrunc double %128 to float
  store float %129, ptr %26, align 4, !tbaa !67
  %130 = load float, ptr %19, align 4, !tbaa !67
  %131 = load float, ptr %26, align 4, !tbaa !67
  %132 = fadd float %130, %131
  %133 = load float, ptr %25, align 4, !tbaa !67
  %134 = fmul float %132, %133
  store float %134, ptr %21, align 4, !tbaa !67
  %135 = load float, ptr %19, align 4, !tbaa !67
  %136 = load float, ptr %26, align 4, !tbaa !67
  %137 = fsub float %135, %136
  %138 = load float, ptr %25, align 4, !tbaa !67
  %139 = fmul float %137, %138
  store float %139, ptr %22, align 4, !tbaa !67
  %140 = load float, ptr %21, align 4, !tbaa !67
  %141 = fpext float %140 to double
  %142 = fcmp oge double %141, 0.000000e+00
  br i1 %142, label %143, label %148

143:                                              ; preds = %123
  %144 = load float, ptr %21, align 4, !tbaa !67
  %145 = fpext float %144 to double
  %146 = fcmp ole double %145, 1.000000e+00
  br i1 %146, label %147, label %148

147:                                              ; preds = %143
  store i32 1, ptr %23, align 4, !tbaa !14
  br label %148

148:                                              ; preds = %147, %143, %123
  %149 = load float, ptr %26, align 4, !tbaa !67
  %150 = fpext float %149 to double
  %151 = fcmp ogt double %150, 0.000000e+00
  br i1 %151, label %152, label %168

152:                                              ; preds = %148
  %153 = load float, ptr %22, align 4, !tbaa !67
  %154 = fpext float %153 to double
  %155 = fcmp oge double %154, 0.000000e+00
  br i1 %155, label %156, label %168

156:                                              ; preds = %152
  %157 = load float, ptr %22, align 4, !tbaa !67
  %158 = fpext float %157 to double
  %159 = fcmp ole double %158, 1.000000e+00
  br i1 %159, label %160, label %168

160:                                              ; preds = %156
  %161 = load i32, ptr %23, align 4, !tbaa !14
  %162 = icmp eq i32 %161, 0
  br i1 %162, label %163, label %165

163:                                              ; preds = %160
  %164 = load float, ptr %22, align 4, !tbaa !67
  store float %164, ptr %21, align 4, !tbaa !67
  br label %165

165:                                              ; preds = %163, %160
  %166 = load i32, ptr %23, align 4, !tbaa !14
  %167 = add nsw i32 %166, 1
  store i32 %167, ptr %23, align 4, !tbaa !14
  br label %168

168:                                              ; preds = %165, %156, %152, %148
  call void @llvm.lifetime.end.p0(i64 4, ptr %26) #8
  call void @llvm.lifetime.end.p0(i64 4, ptr %25) #8
  br label %169

169:                                              ; preds = %168, %112
  call void @llvm.lifetime.end.p0(i64 4, ptr %24) #8
  br label %184

170:                                              ; preds = %6
  %171 = load float, ptr %20, align 4, !tbaa !67
  %172 = load float, ptr %19, align 4, !tbaa !67
  %173 = fmul float -2.000000e+00, %172
  %174 = fdiv float %171, %173
  store float %174, ptr %21, align 4, !tbaa !67
  %175 = load float, ptr %21, align 4, !tbaa !67
  %176 = fpext float %175 to double
  %177 = fcmp oge double %176, 0.000000e+00
  br i1 %177, label %178, label %183

178:                                              ; preds = %170
  %179 = load float, ptr %21, align 4, !tbaa !67
  %180 = fpext float %179 to double
  %181 = fcmp ole double %180, 1.000000e+00
  br i1 %181, label %182, label %183

182:                                              ; preds = %178
  store i32 1, ptr %23, align 4, !tbaa !14
  br label %183

183:                                              ; preds = %182, %178, %170
  br label %184

184:                                              ; preds = %183, %169
  %185 = load i32, ptr %23, align 4, !tbaa !14
  %186 = icmp eq i32 %185, 0
  br i1 %186, label %187, label %188

187:                                              ; preds = %184
  store i32 0, ptr %7, align 4
  store i32 1, ptr %27, align 4
  br label %312

188:                                              ; preds = %184
  call void @llvm.lifetime.start.p0(i64 4, ptr %28) #8
  %189 = load ptr, ptr %9, align 8, !tbaa !133
  %190 = getelementptr inbounds float, ptr %189, i64 0
  %191 = load float, ptr %190, align 4, !tbaa !67
  %192 = load ptr, ptr %9, align 8, !tbaa !133
  %193 = getelementptr inbounds float, ptr %192, i64 0
  %194 = load float, ptr %193, align 4, !tbaa !67
  %195 = load ptr, ptr %9, align 8, !tbaa !133
  %196 = getelementptr inbounds float, ptr %195, i64 1
  %197 = load float, ptr %196, align 4, !tbaa !67
  %198 = load ptr, ptr %9, align 8, !tbaa !133
  %199 = getelementptr inbounds float, ptr %198, i64 1
  %200 = load float, ptr %199, align 4, !tbaa !67
  %201 = fmul float %197, %200
  %202 = call float @llvm.fmuladd.f32(float %191, float %194, float %201)
  %203 = fdiv float 1.000000e+00, %202
  store float %203, ptr %28, align 4, !tbaa !67
  call void @llvm.lifetime.start.p0(i64 4, ptr %29) #8
  %204 = load ptr, ptr %9, align 8, !tbaa !133
  %205 = getelementptr inbounds float, ptr %204, i64 0
  %206 = load float, ptr %205, align 4, !tbaa !67
  %207 = load float, ptr %28, align 4, !tbaa !67
  %208 = fmul float %206, %207
  store float %208, ptr %29, align 4, !tbaa !67
  call void @llvm.lifetime.start.p0(i64 4, ptr %30) #8
  %209 = load ptr, ptr %9, align 8, !tbaa !133
  %210 = getelementptr inbounds float, ptr %209, i64 1
  %211 = load float, ptr %210, align 4, !tbaa !67
  %212 = load float, ptr %28, align 4, !tbaa !67
  %213 = fmul float %211, %212
  store float %213, ptr %30, align 4, !tbaa !67
  call void @llvm.lifetime.start.p0(i64 4, ptr %31) #8
  %214 = load ptr, ptr %10, align 8, !tbaa !133
  %215 = getelementptr inbounds float, ptr %214, i64 0
  %216 = load float, ptr %215, align 4, !tbaa !67
  %217 = load float, ptr %29, align 4, !tbaa !67
  %218 = load ptr, ptr %10, align 8, !tbaa !133
  %219 = getelementptr inbounds float, ptr %218, i64 1
  %220 = load float, ptr %219, align 4, !tbaa !67
  %221 = load float, ptr %30, align 4, !tbaa !67
  %222 = fmul float %220, %221
  %223 = call float @llvm.fmuladd.f32(float %216, float %217, float %222)
  store float %223, ptr %31, align 4, !tbaa !67
  call void @llvm.lifetime.start.p0(i64 4, ptr %32) #8
  %224 = load ptr, ptr %11, align 8, !tbaa !133
  %225 = getelementptr inbounds float, ptr %224, i64 0
  %226 = load float, ptr %225, align 4, !tbaa !67
  %227 = load float, ptr %29, align 4, !tbaa !67
  %228 = load ptr, ptr %11, align 8, !tbaa !133
  %229 = getelementptr inbounds float, ptr %228, i64 1
  %230 = load float, ptr %229, align 4, !tbaa !67
  %231 = load float, ptr %30, align 4, !tbaa !67
  %232 = fmul float %230, %231
  %233 = call float @llvm.fmuladd.f32(float %226, float %227, float %232)
  store float %233, ptr %32, align 4, !tbaa !67
  call void @llvm.lifetime.start.p0(i64 4, ptr %33) #8
  %234 = load ptr, ptr %12, align 8, !tbaa !133
  %235 = getelementptr inbounds float, ptr %234, i64 0
  %236 = load float, ptr %235, align 4, !tbaa !67
  %237 = load float, ptr %29, align 4, !tbaa !67
  %238 = load ptr, ptr %12, align 8, !tbaa !133
  %239 = getelementptr inbounds float, ptr %238, i64 1
  %240 = load float, ptr %239, align 4, !tbaa !67
  %241 = load float, ptr %30, align 4, !tbaa !67
  %242 = fmul float %240, %241
  %243 = call float @llvm.fmuladd.f32(float %236, float %237, float %242)
  store float %243, ptr %33, align 4, !tbaa !67
  call void @llvm.lifetime.start.p0(i64 4, ptr %34) #8
  %244 = load ptr, ptr %8, align 8, !tbaa !133
  %245 = getelementptr inbounds float, ptr %244, i64 0
  %246 = load float, ptr %245, align 4, !tbaa !67
  %247 = load float, ptr %29, align 4, !tbaa !67
  %248 = load ptr, ptr %8, align 8, !tbaa !133
  %249 = getelementptr inbounds float, ptr %248, i64 1
  %250 = load float, ptr %249, align 4, !tbaa !67
  %251 = load float, ptr %30, align 4, !tbaa !67
  %252 = fmul float %250, %251
  %253 = call float @llvm.fmuladd.f32(float %246, float %247, float %252)
  store float %253, ptr %34, align 4, !tbaa !67
  call void @llvm.lifetime.start.p0(i64 4, ptr %35) #8
  %254 = load float, ptr %32, align 4, !tbaa !67
  %255 = load float, ptr %31, align 4, !tbaa !67
  %256 = fsub float %254, %255
  store float %256, ptr %35, align 4, !tbaa !67
  call void @llvm.lifetime.start.p0(i64 4, ptr %36) #8
  %257 = load float, ptr %33, align 4, !tbaa !67
  %258 = load float, ptr %31, align 4, !tbaa !67
  %259 = fsub float %257, %258
  store float %259, ptr %36, align 4, !tbaa !67
  call void @llvm.lifetime.start.p0(i64 4, ptr %37) #8
  %260 = load float, ptr %31, align 4, !tbaa !67
  %261 = load float, ptr %34, align 4, !tbaa !67
  %262 = fsub float %260, %261
  store float %262, ptr %37, align 4, !tbaa !67
  %263 = load float, ptr %37, align 4, !tbaa !67
  %264 = load float, ptr %21, align 4, !tbaa !67
  %265 = load float, ptr %21, align 4, !tbaa !67
  %266 = call float @llvm.fmuladd.f32(float -2.000000e+00, float %265, float 2.000000e+00)
  %267 = fmul float %264, %266
  %268 = load float, ptr %35, align 4, !tbaa !67
  %269 = call float @llvm.fmuladd.f32(float %267, float %268, float %263)
  %270 = load float, ptr %21, align 4, !tbaa !67
  %271 = load float, ptr %21, align 4, !tbaa !67
  %272 = fmul float %270, %271
  %273 = load float, ptr %36, align 4, !tbaa !67
  %274 = call float @llvm.fmuladd.f32(float %272, float %273, float %269)
  %275 = load ptr, ptr %13, align 8, !tbaa !133
  %276 = getelementptr inbounds [2 x float], ptr %275, i64 0
  %277 = getelementptr inbounds [2 x float], ptr %276, i64 0, i64 0
  store float %274, ptr %277, align 4, !tbaa !67
  %278 = load float, ptr %18, align 4, !tbaa !67
  %279 = load float, ptr %21, align 4, !tbaa !67
  %280 = load float, ptr %19, align 4, !tbaa !67
  %281 = call float @llvm.fmuladd.f32(float %278, float %279, float %280)
  %282 = load ptr, ptr %13, align 8, !tbaa !133
  %283 = getelementptr inbounds [2 x float], ptr %282, i64 0
  %284 = getelementptr inbounds [2 x float], ptr %283, i64 0, i64 1
  store float %281, ptr %284, align 4, !tbaa !67
  %285 = load i32, ptr %23, align 4, !tbaa !14
  %286 = icmp sgt i32 %285, 1
  br i1 %286, label %287, label %310

287:                                              ; preds = %188
  %288 = load float, ptr %37, align 4, !tbaa !67
  %289 = load float, ptr %22, align 4, !tbaa !67
  %290 = load float, ptr %22, align 4, !tbaa !67
  %291 = call float @llvm.fmuladd.f32(float -2.000000e+00, float %290, float 2.000000e+00)
  %292 = fmul float %289, %291
  %293 = load float, ptr %35, align 4, !tbaa !67
  %294 = call float @llvm.fmuladd.f32(float %292, float %293, float %288)
  %295 = load float, ptr %22, align 4, !tbaa !67
  %296 = load float, ptr %22, align 4, !tbaa !67
  %297 = fmul float %295, %296
  %298 = load float, ptr %36, align 4, !tbaa !67
  %299 = call float @llvm.fmuladd.f32(float %297, float %298, float %294)
  %300 = load ptr, ptr %13, align 8, !tbaa !133
  %301 = getelementptr inbounds [2 x float], ptr %300, i64 1
  %302 = getelementptr inbounds [2 x float], ptr %301, i64 0, i64 0
  store float %299, ptr %302, align 4, !tbaa !67
  %303 = load float, ptr %18, align 4, !tbaa !67
  %304 = load float, ptr %22, align 4, !tbaa !67
  %305 = load float, ptr %19, align 4, !tbaa !67
  %306 = call float @llvm.fmuladd.f32(float %303, float %304, float %305)
  %307 = load ptr, ptr %13, align 8, !tbaa !133
  %308 = getelementptr inbounds [2 x float], ptr %307, i64 1
  %309 = getelementptr inbounds [2 x float], ptr %308, i64 0, i64 1
  store float %306, ptr %309, align 4, !tbaa !67
  store i32 2, ptr %7, align 4
  store i32 1, ptr %27, align 4
  br label %311

310:                                              ; preds = %188
  store i32 1, ptr %7, align 4
  store i32 1, ptr %27, align 4
  br label %311

311:                                              ; preds = %310, %287
  call void @llvm.lifetime.end.p0(i64 4, ptr %37) #8
  call void @llvm.lifetime.end.p0(i64 4, ptr %36) #8
  call void @llvm.lifetime.end.p0(i64 4, ptr %35) #8
  call void @llvm.lifetime.end.p0(i64 4, ptr %34) #8
  call void @llvm.lifetime.end.p0(i64 4, ptr %33) #8
  call void @llvm.lifetime.end.p0(i64 4, ptr %32) #8
  call void @llvm.lifetime.end.p0(i64 4, ptr %31) #8
  call void @llvm.lifetime.end.p0(i64 4, ptr %30) #8
  call void @llvm.lifetime.end.p0(i64 4, ptr %29) #8
  call void @llvm.lifetime.end.p0(i64 4, ptr %28) #8
  br label %312

312:                                              ; preds = %311, %187
  call void @llvm.lifetime.end.p0(i64 4, ptr %23) #8
  call void @llvm.lifetime.end.p0(i64 4, ptr %22) #8
  call void @llvm.lifetime.end.p0(i64 4, ptr %21) #8
  call void @llvm.lifetime.end.p0(i64 4, ptr %20) #8
  call void @llvm.lifetime.end.p0(i64 4, ptr %19) #8
  call void @llvm.lifetime.end.p0(i64 4, ptr %18) #8
  call void @llvm.lifetime.end.p0(i64 4, ptr %17) #8
  call void @llvm.lifetime.end.p0(i64 4, ptr %16) #8
  call void @llvm.lifetime.end.p0(i64 4, ptr %15) #8
  call void @llvm.lifetime.end.p0(i64 4, ptr %14) #8
  %313 = load i32, ptr %7, align 4
  ret i32 %313
}