; Function Attrs: mustprogress nofree nounwind willreturn memory(write, argmem: readwrite) uwtable
define range(i32 0, 3) i32 @stbtt__ray_intersect_bezier(ptr noundef readonly captures(none) %0, ptr noundef readonly captures(none) %1, ptr noundef readonly captures(none) %2, ptr noundef readonly captures(none) %3, ptr noundef readonly captures(none) %4, ptr noundef writeonly captures(none) %5) local_unnamed_addr #26 {
  %7 = getelementptr inbounds nuw i8, ptr %2, i64 4
  %8 = load float, ptr %7, align 4, !tbaa !71
  %9 = load float, ptr %1, align 4, !tbaa !71
  %10 = load float, ptr %2, align 4, !tbaa !71
  %11 = getelementptr inbounds nuw i8, ptr %1, i64 4
  %12 = load float, ptr %11, align 4, !tbaa !71
  %13 = fneg float %12
  %14 = fmul float %10, %13
  %15 = tail call float @llvm.fmuladd.f32(float %8, float %9, float %14)
  %16 = getelementptr inbounds nuw i8, ptr %3, i64 4
  %17 = load float, ptr %16, align 4, !tbaa !71
  %18 = load float, ptr %3, align 4, !tbaa !71
  %19 = fmul float %18, %13
  %20 = tail call float @llvm.fmuladd.f32(float %17, float %9, float %19)
  %21 = getelementptr inbounds nuw i8, ptr %4, i64 4
  %22 = load float, ptr %21, align 4, !tbaa !71
  %23 = load float, ptr %4, align 4, !tbaa !71
  %24 = fmul float %23, %13
  %25 = tail call float @llvm.fmuladd.f32(float %22, float %9, float %24)
  %26 = getelementptr inbounds nuw i8, ptr %0, i64 4
  %27 = load float, ptr %26, align 4, !tbaa !71
  %28 = load float, ptr %0, align 4, !tbaa !71
  %29 = fmul float %28, %13
  %30 = tail call float @llvm.fmuladd.f32(float %27, float %9, float %29)
  %31 = tail call float @llvm.fmuladd.f32(float %20, float -2.000000e+00, float %15)
  %32 = fadd float %31, %25
  %33 = fsub float %20, %15
  %34 = fsub float %15, %30
  %35 = fcmp une float %32, 0.000000e+00
  br i1 %35, label %36, label %54

36:                                               ; preds = %6
  %37 = fneg float %34
  %38 = fmul float %32, %37
  %39 = tail call float @llvm.fmuladd.f32(float %33, float %33, float %38)
  %40 = fcmp ogt float %39, 0.000000e+00
  br i1 %40, label %41, label %.thread

41:                                               ; preds = %36
  %42 = fdiv float -1.000000e+00, %32
  %sqrtf = tail call float @sqrtf(float noundef %39) #15
  %43 = fadd float %33, %sqrtf
  %44 = fmul float %42, %43
  %45 = fsub float %33, %sqrtf
  %46 = fmul float %42, %45
  %47 = fcmp oge float %44, 0.000000e+00
  %48 = fcmp ole float %44, 1.000000e+00
  %or.cond.not.not.not = and i1 %47, %48
  %49 = fcmp ule float %sqrtf, 0.000000e+00
  %50 = fcmp ult float %46, 0.000000e+00
  %51 = fcmp ugt float %46, 1.000000e+00
  %52 = or i1 %50, %51
  %or.cond118 = select i1 %49, i1 true, i1 %52
  br i1 %or.cond118, label %59, label %53

53:                                               ; preds = %41
  %.2 = select i1 %or.cond.not.not.not, float %44, float %46
  br label %.thread126

54:                                               ; preds = %6
  %55 = fmul float %33, -2.000000e+00
  %56 = fdiv float %34, %55
  %57 = fcmp ult float %56, 0.000000e+00
  %58 = fcmp ugt float %56, 1.000000e+00
  %or.cond119 = or i1 %57, %58
  br i1 %or.cond119, label %.thread, label %.thread126

59:                                               ; preds = %41
  br i1 %or.cond.not.not.not, label %.thread126, label %.thread

.thread126:                                       ; preds = %54, %53, %59
  %.3132 = phi float [ %44, %59 ], [ %56, %54 ], [ %.2, %53 ]
  %.1108131 = phi float [ %46, %59 ], [ 0.000000e+00, %54 ], [ %46, %53 ]
  %.3112130 = phi i1 [ false, %59 ], [ false, %54 ], [ %or.cond.not.not.not, %53 ]
  %60 = load float, ptr %1, align 4, !tbaa !71
  %61 = load float, ptr %11, align 4, !tbaa !71
  %62 = fmul float %61, %61
  %63 = tail call float @llvm.fmuladd.f32(float %60, float %60, float %62)
  %64 = fdiv float 1.000000e+00, %63
  %65 = fmul float %60, %64
  %66 = fmul float %61, %64
  %67 = load float, ptr %2, align 4, !tbaa !71
  %68 = load float, ptr %7, align 4, !tbaa !71
  %69 = fmul float %68, %66
  %70 = tail call float @llvm.fmuladd.f32(float %67, float %65, float %69)
  %71 = load float, ptr %3, align 4, !tbaa !71
  %72 = load float, ptr %16, align 4, !tbaa !71
  %73 = fmul float %72, %66
  %74 = tail call float @llvm.fmuladd.f32(float %71, float %65, float %73)
  %75 = load float, ptr %4, align 4, !tbaa !71
  %76 = load float, ptr %21, align 4, !tbaa !71
  %77 = fmul float %66, %76
  %78 = tail call float @llvm.fmuladd.f32(float %75, float %65, float %77)
  %79 = load float, ptr %0, align 4, !tbaa !71
  %80 = load float, ptr %26, align 4, !tbaa !71
  %81 = fmul float %66, %80
  %82 = tail call float @llvm.fmuladd.f32(float %79, float %65, float %81)
  %83 = fsub float %74, %70
  %84 = fsub float %78, %70
  %85 = fsub float %70, %82
  %86 = tail call float @llvm.fmuladd.f32(float %.3132, float -2.000000e+00, float 2.000000e+00)
  %87 = fmul float %.3132, %86
  %88 = tail call float @llvm.fmuladd.f32(float %87, float %83, float %85)
  %89 = fmul float %.3132, %.3132
  %90 = tail call float @llvm.fmuladd.f32(float %89, float %84, float %88)
  store float %90, ptr %5, align 4, !tbaa !71
  %91 = tail call float @llvm.fmuladd.f32(float %32, float %.3132, float %33)
  %92 = getelementptr inbounds nuw i8, ptr %5, i64 4
  store float %91, ptr %92, align 4, !tbaa !71
  br i1 %.3112130, label %93, label %.thread

93:                                               ; preds = %.thread126
  %94 = tail call float @llvm.fmuladd.f32(float %.1108131, float -2.000000e+00, float 2.000000e+00)
  %95 = fmul float %.1108131, %94
  %96 = tail call float @llvm.fmuladd.f32(float %95, float %83, float %85)
  %97 = fmul float %.1108131, %.1108131
  %98 = tail call float @llvm.fmuladd.f32(float %97, float %84, float %96)
  %99 = getelementptr inbounds nuw i8, ptr %5, i64 8
  store float %98, ptr %99, align 4, !tbaa !71
  %100 = tail call float @llvm.fmuladd.f32(float %32, float %.1108131, float %33)
  %101 = getelementptr inbounds nuw i8, ptr %5, i64 12
  store float %100, ptr %101, align 4, !tbaa !71
  br label %.thread

.thread:                                          ; preds = %54, %36, %93, %.thread126, %59
  %.0 = phi i32 [ 0, %59 ], [ 2, %93 ], [ 1, %.thread126 ], [ 0, %36 ], [ 0, %54 ]
  ret i32 %.0
}